target datalayout = "e-m:e-p270:32:32-p271:32:32-p272:64:64-i64:64-i128:128-f80:128-n8:16:32:64-S128"
target triple = "x86_64-pc-linux-gnu"

%struct.timespec = type { i64, i64 }

@err_prefix = internal constant [1 x i8] zeroinitializer, align 1
@info_prefix = internal constant [1 x i8] zeroinitializer, align 1
@csv_format = internal global i32 0, align 4
@lng_index = internal global i32 0, align 4
@.str.78 = private unnamed_addr constant [28 x i8] c"%s%s L%d error %d for \22%s\22\0A\00", align 1
@.str.79 = private unnamed_addr constant [125 x i8] c"generated/home/dtcxzyw/WorkSpace/Projects/compilers/llvm-opt-benchmark/bench/wolfssl/wolfssl/wolfcrypt/benchmark/benchmark.c\00", align 1
@.str.80 = private unnamed_addr constant [35 x i8] c"clock_gettime(CLOCK_REALTIME, &tv)\00", align 1
@stdout = external global ptr, align 8
@.str.107 = private unnamed_addr constant [2 x i8] c"\0A\00", align 1
@.str.113 = private unnamed_addr constant [1 x i8] zeroinitializer, align 1
@.str.115 = private unnamed_addr constant [3 x i8] c"%s\00", align 1
@bench_result_words2 = internal global [2 x [5 x ptr]] [[5 x ptr] [ptr @.str.164, ptr @.str.165, ptr @.str.166, ptr @.str.167, ptr null], [5 x ptr] [ptr @.str.168, ptr @.str.169, ptr @.str.170, ptr @.str.171, ptr null]], align 16
@bench_stats_asym_finish_ex.asym_header_printed = internal global i32 0, align 4
@.str.159 = private unnamed_addr constant [25 x i8] c"\0A%sAsymmetric Ciphers:\0A\0A\00", align 1
@.str.160 = private unnamed_addr constant [47 x i8] c"%sAlgorithm,key size,operation,avg ms,ops/sec,\00", align 1
@.str.161 = private unnamed_addr constant [23 x i8] c"%s,%d,%s%s,%.*f,%.*f,\0A\00", align 1
@.str.162 = private unnamed_addr constant [59 x i8] c"%-6s %5d %8s%-2s %s %6d %s %*.*f %s, %s %*.*f ms, %.*f %s\0A\00", align 1
@.str.163 = private unnamed_addr constant [33 x i8] c"%sBenchmark %s %s %d failed: %d\0A\00", align 1

; Function Attrs: nounwind uwtable
define dso_local double @current_time(i32 noundef %0) #0 {
  %2 = alloca i32, align 4
  %3 = alloca %struct.timespec, align 8
  %4 = alloca i32, align 4
  store i32 %0, ptr %2, align 4, !tbaa !4
  call void @llvm.lifetime.start.p0(i64 16, ptr %3) #12
  br label %5

5:                                                ; preds = %1
  call void @llvm.lifetime.start.p0(i64 4, ptr %4) #12
  %6 = call i32 @clock_gettime(i32 noundef 0, ptr noundef %3) #12
  store i32 %6, ptr %4, align 4, !tbaa !4
  %7 = load i32, ptr %4, align 4, !tbaa !4
  %8 = icmp slt i32 %7, 0
  br i1 %8, label %9, label %15

9:                                                ; preds = %5
  %10 = call ptr @__errno_location() #14
  %11 = load i32, ptr %10, align 4, !tbaa !4
  %12 = call i32 (ptr, ...) @printf(ptr noundef @.str.78, ptr noundef @err_prefix, ptr noundef @.str.79, i32 noundef 14994, i32 noundef %11, ptr noundef @.str.80)
  %13 = load ptr, ptr @stdout, align 8, !tbaa !14
  %14 = call i32 @fflush(ptr noundef %13)
  call void @_exit(i32 noundef 1) #15
  unreachable

15:                                               ; preds = %5
  call void @llvm.lifetime.end.p0(i64 4, ptr %4) #12
  br label %16

16:                                               ; preds = %15
  br label %17

17:                                               ; preds = %16
  %18 = getelementptr inbounds nuw %struct.timespec, ptr %3, i32 0, i32 0
  %19 = load i64, ptr %18, align 8, !tbaa !241
  %20 = sitofp i64 %19 to double
  %21 = getelementptr inbounds nuw %struct.timespec, ptr %3, i32 0, i32 1
  %22 = load i64, ptr %21, align 8, !tbaa !243
  %23 = sitofp i64 %22 to double
  %24 = fdiv double %23, 1.000000e+09
  %25 = fadd double %20, %24
  call void @llvm.lifetime.end.p0(i64 16, ptr %3) #12
  ret double %25
}

; Function Attrs: nounwind uwtable
define internal void @bench_stats_asym_finish_ex(ptr noundef %0, i32 noundef %1, ptr noundef %2, ptr noundef %3, i32 noundef %4, i32 noundef %5, double noundef %6, i32 noundef %7) #0 {
  %9 = alloca ptr, align 8
  %10 = alloca i32, align 4
  %11 = alloca ptr, align 8
  %12 = alloca ptr, align 8
  %13 = alloca i32, align 4
  %14 = alloca i32, align 4
  %15 = alloca double, align 8
  %16 = alloca i32, align 4
  %17 = alloca double, align 8
  %18 = alloca double, align 8
  %19 = alloca double, align 8
  %20 = alloca double, align 8
  %21 = alloca ptr, align 8
  %22 = alloca [256 x i8], align 16
  %23 = alloca i32, align 4
  store ptr %0, ptr %9, align 8, !tbaa !12
  store i32 %1, ptr %10, align 4, !tbaa !4
  store ptr %2, ptr %11, align 8, !tbaa !12
  store ptr %3, ptr %12, align 8, !tbaa !12
  store i32 %4, ptr %13, align 4, !tbaa !4
  store i32 %5, ptr %14, align 4, !tbaa !4
  store double %6, ptr %15, align 8, !tbaa !20
  store i32 %7, ptr %16, align 4, !tbaa !4
  call void @llvm.lifetime.start.p0(i64 8, ptr %17) #12
  call void @llvm.lifetime.start.p0(i64 8, ptr %18) #12
  store double 0.000000e+00, ptr %18, align 8, !tbaa !20
  call void @llvm.lifetime.start.p0(i64 8, ptr %19) #12
  call void @llvm.lifetime.start.p0(i64 8, ptr %20) #12
  call void @llvm.lifetime.start.p0(i64 8, ptr %21) #12
  %24 = load i32, ptr @lng_index, align 4, !tbaa !4
  %25 = sext i32 %24 to i64
  %26 = getelementptr inbounds [2 x [5 x ptr]], ptr @bench_result_words2, i64 0, i64 %25
  %27 = getelementptr inbounds [5 x ptr], ptr %26, i64 0, i64 0
  store ptr %27, ptr %21, align 8, !tbaa !27
  call void @llvm.lifetime.start.p0(i64 256, ptr %22) #12
  call void @llvm.lifetime.start.p0(i64 4, ptr %23) #12
  store i32 3, ptr %23, align 4, !tbaa !4
  %28 = getelementptr inbounds [256 x i8], ptr %22, i64 0, i64 0
  call void @llvm.memset.p0.i64(ptr align 16 %28, i8 0, i64 256, i1 false)
  %29 = call double @current_time(i32 noundef 0)
  %30 = load double, ptr %15, align 8, !tbaa !20
  %31 = fsub double %29, %30
  store double %31, ptr %17, align 8, !tbaa !20
  %32 = load i32, ptr %14, align 4, !tbaa !4
  %33 = icmp sgt i32 %32, 0
  br i1 %33, label %34, label %39

34:                                               ; preds = %8
  %35 = load double, ptr %17, align 8, !tbaa !20
  %36 = load i32, ptr %14, align 4, !tbaa !4
  %37 = sitofp i32 %36 to double
  %38 = fdiv double %35, %37
  store double %38, ptr %18, align 8, !tbaa !20
  br label %40

39:                                               ; preds = %8
  store i32 0, ptr %14, align 4, !tbaa !4
  store double 0.000000e+00, ptr %18, align 8, !tbaa !20
  br label %40

40:                                               ; preds = %39, %34
  %41 = load double, ptr %17, align 8, !tbaa !20
  %42 = fcmp ogt double %41, 0.000000e+00
  br i1 %42, label %43, label %48

43:                                               ; preds = %40
  %44 = load i32, ptr %14, align 4, !tbaa !4
  %45 = sitofp i32 %44 to double
  %46 = load double, ptr %17, align 8, !tbaa !20
  %47 = fdiv double %45, %46
  store double %47, ptr %19, align 8, !tbaa !20
  br label %49

48:                                               ; preds = %40
  store double 0.000000e+00, ptr %19, align 8, !tbaa !20
  br label %49

49:                                               ; preds = %48, %43
  %50 = load double, ptr %18, align 8, !tbaa !20
  %51 = fmul double %50, 1.000000e+03
  store double %51, ptr %20, align 8, !tbaa !20
  br label %52

52:                                               ; preds = %49
  br label %53

53:                                               ; preds = %52
  br label %54

54:                                               ; preds = %53
  %55 = load i32, ptr @csv_format, align 4, !tbaa !4
  %56 = icmp eq i32 %55, 1
  br i1 %56, label %57, label %73

57:                                               ; preds = %54
  %58 = load i32, ptr @bench_stats_asym_finish_ex.asym_header_printed, align 4, !tbaa !4
  %59 = icmp eq i32 %58, 0
  br i1 %59, label %60, label %64

60:                                               ; preds = %57
  %61 = call i32 (ptr, ...) @printf(ptr noundef @.str.159, ptr noundef @info_prefix)
  %62 = call i32 (ptr, ...) @printf(ptr noundef @.str.160, ptr noundef @info_prefix)
  %63 = call i32 (ptr, ...) @printf(ptr noundef @.str.107)
  store i32 1, ptr @bench_stats_asym_finish_ex.asym_header_printed, align 4, !tbaa !4
  br label %64

64:                                               ; preds = %60, %57
  %65 = getelementptr inbounds [256 x i8], ptr %22, i64 0, i64 0
  %66 = load ptr, ptr %9, align 8, !tbaa !12
  %67 = load i32, ptr %10, align 4, !tbaa !4
  %68 = load ptr, ptr %11, align 8, !tbaa !12
  %69 = load ptr, ptr %12, align 8, !tbaa !12
  %70 = load double, ptr %20, align 8, !tbaa !20
  %71 = load double, ptr %19, align 8, !tbaa !20
  %72 = call i32 (ptr, i64, ptr, ...) @snprintf(ptr noundef %65, i64 noundef 256, ptr noundef @.str.161, ptr noundef %66, i32 noundef %67, ptr noundef %68, ptr noundef %69, i32 noundef 3, double noundef %70, i32 noundef 3, double noundef %71) #12
  br label %96

73:                                               ; preds = %54
  %74 = getelementptr inbounds [256 x i8], ptr %22, i64 0, i64 0
  %75 = load ptr, ptr %9, align 8, !tbaa !12
  %76 = load i32, ptr %10, align 4, !tbaa !4
  %77 = load ptr, ptr %11, align 8, !tbaa !12
  %78 = load ptr, ptr %12, align 8, !tbaa !12
  %79 = load i32, ptr %14, align 4, !tbaa !4
  %80 = load ptr, ptr %21, align 8, !tbaa !27
  %81 = getelementptr inbounds ptr, ptr %80, i64 0
  %82 = load ptr, ptr %81, align 8, !tbaa !12
  %83 = load double, ptr %17, align 8, !tbaa !20
  %84 = load ptr, ptr %21, align 8, !tbaa !27
  %85 = getelementptr inbounds ptr, ptr %84, i64 1
  %86 = load ptr, ptr %85, align 8, !tbaa !12
  %87 = load ptr, ptr %21, align 8, !tbaa !27
  %88 = getelementptr inbounds ptr, ptr %87, i64 2
  %89 = load ptr, ptr %88, align 8, !tbaa !12
  %90 = load double, ptr %20, align 8, !tbaa !20
  %91 = load double, ptr %19, align 8, !tbaa !20
  %92 = load ptr, ptr %21, align 8, !tbaa !27
  %93 = getelementptr inbounds ptr, ptr %92, i64 3
  %94 = load ptr, ptr %93, align 8, !tbaa !12
  %95 = call i32 (ptr, i64, ptr, ...) @snprintf(ptr noundef %74, i64 noundef 256, ptr noundef @.str.162, ptr noundef %75, i32 noundef %76, ptr noundef %77, ptr noundef %78, ptr noundef @.str.113, i32 noundef %79, ptr noundef %82, i32 noundef 5, i32 noundef 3, double noundef %83, ptr noundef %86, ptr noundef %89, i32 noundef 5, i32 noundef 3, double noundef %90, i32 noundef 3, double noundef %91, ptr noundef %94) #12
  br label %96

96:                                               ; preds = %73, %64
  %97 = getelementptr inbounds [256 x i8], ptr %22, i64 0, i64 0
  %98 = call i32 (ptr, ...) @printf(ptr noundef @.str.115, ptr noundef %97)
  %99 = load i32, ptr %16, align 4, !tbaa !4
  %100 = icmp slt i32 %99, 0
  br i1 %100, label %101, label %107

101:                                              ; preds = %96
  %102 = load ptr, ptr %9, align 8, !tbaa !12
  %103 = load ptr, ptr %11, align 8, !tbaa !12
  %104 = load i32, ptr %10, align 4, !tbaa !4
  %105 = load i32, ptr %16, align 4, !tbaa !4
  %106 = call i32 (ptr, ...) @printf(ptr noundef @.str.163, ptr noundef @err_prefix, ptr noundef %102, ptr noundef %103, i32 noundef %104, i32 noundef %105)
  br label %107

107:                                              ; preds = %101, %96
  %108 = load ptr, ptr @stdout, align 8, !tbaa !14
  %109 = call i32 @fflush(ptr noundef %108)
  br label %110

110:                                              ; preds = %107
  br label %111

111:                                              ; preds = %110
  br label %112

112:                                              ; preds = %111
  call void @llvm.lifetime.end.p0(i64 4, ptr %23) #12
  call void @llvm.lifetime.end.p0(i64 256, ptr %22) #12
  call void @llvm.lifetime.end.p0(i64 8, ptr %21) #12
  call void @llvm.lifetime.end.p0(i64 8, ptr %20) #12
  call void @llvm.lifetime.end.p0(i64 8, ptr %19) #12
  call void @llvm.lifetime.end.p0(i64 8, ptr %18) #12
  call void @llvm.lifetime.end.p0(i64 8, ptr %17) #12
  ret void
}

; Function Attrs: nounwind uwtable
define internal void @bench_stats_asym_finish(ptr noundef %0, i32 noundef %1, ptr noundef %2, i32 noundef %3, i32 noundef %4, double noundef %5, i32 noundef %6) #0 {
  %8 = alloca ptr, align 8
  %9 = alloca i32, align 4
  %10 = alloca ptr, align 8
  %11 = alloca i32, align 4
  %12 = alloca i32, align 4
  %13 = alloca double, align 8
  %14 = alloca i32, align 4
  store ptr %0, ptr %8, align 8, !tbaa !12
  store i32 %1, ptr %9, align 4, !tbaa !4
  store ptr %2, ptr %10, align 8, !tbaa !12
  store i32 %3, ptr %11, align 4, !tbaa !4
  store i32 %4, ptr %12, align 4, !tbaa !4
  store double %5, ptr %13, align 8, !tbaa !20
  store i32 %6, ptr %14, align 4, !tbaa !4
  %15 = load ptr, ptr %8, align 8, !tbaa !12
  %16 = load i32, ptr %9, align 4, !tbaa !4
  %17 = load ptr, ptr %10, align 8, !tbaa !12
  %18 = load i32, ptr %11, align 4, !tbaa !4
  %19 = load i32, ptr %12, align 4, !tbaa !4
  %20 = load double, ptr %13, align 8, !tbaa !20
  %21 = load i32, ptr %14, align 4, !tbaa !4
  call void @bench_stats_asym_finish_ex(ptr noundef %15, i32 noundef %16, ptr noundef %17, ptr noundef @.str.113, i32 noundef %18, i32 noundef %19, double noundef %20, i32 noundef %21)
  ret void
}