; Function Attrs: nounwind uwtable
define internal fastcc void @bench_stats_asym_finish(ptr noundef %0, i32 noundef %1, ptr noundef %2, i32 noundef %3, double noundef %4, i32 noundef %5) unnamed_addr #0 {
  %7 = alloca %struct.timespec, align 8
  %8 = alloca [256 x i8], align 16
  %9 = load i32, ptr @lng_index, align 4, !tbaa !4
  %10 = sext i32 %9 to i64
  %11 = getelementptr inbounds [2 x [5 x ptr]], ptr @bench_result_words2, i64 0, i64 %10
  call void @llvm.lifetime.start.p0(i64 256, ptr nonnull %8) #16
  call void @llvm.memset.p0.i64(ptr noundef nonnull align 16 dereferenceable(256) %8, i8 0, i64 256, i1 false)
  call void @llvm.lifetime.start.p0(i64 16, ptr nonnull %7) #16
  %12 = call i32 @clock_gettime(i32 noundef 0, ptr noundef nonnull %7) #16
  %13 = icmp slt i32 %12, 0
  br i1 %13, label %14, label %current_time.exit.i

14:                                               ; preds = %6
  %15 = tail call ptr @__errno_location() #17
  %16 = load i32, ptr %15, align 4, !tbaa !4
  %17 = call i32 (ptr, ...) @printf(ptr noundef nonnull dereferenceable(1) @.str.78, ptr noundef nonnull @.str.113, ptr noundef nonnull @.str.79, i32 noundef 14994, i32 noundef %16, ptr noundef nonnull @.str.80)
  %18 = load ptr, ptr @stdout, align 8, !tbaa !14
  %19 = call i32 @fflush(ptr noundef %18)
  call void @_exit(i32 noundef 1) #18
  unreachable

current_time.exit.i:                              ; preds = %6
  %20 = load i64, ptr %7, align 8, !tbaa !16
  %21 = sitofp i64 %20 to double
  %22 = getelementptr inbounds nuw i8, ptr %7, i64 8
  %23 = load i64, ptr %22, align 8, !tbaa !19
  %24 = sitofp i64 %23 to double
  %25 = fdiv double %24, 1.000000e+09
  %26 = fadd double %25, %21
  call void @llvm.lifetime.end.p0(i64 16, ptr nonnull %7) #16
  %27 = fsub double %26, %4
  %28 = icmp sgt i32 %3, 0
  %29 = uitofp nneg i32 %3 to double
  %30 = fdiv double %27, %29
  %31 = fmul double %30, 1.000000e+03
  %.030.i = select i1 %28, double %31, double 0.000000e+00
  %.0.i = call i32 @llvm.smax.i32(i32 %3, i32 0)
  %32 = fcmp ogt double %27, 0.000000e+00
  %33 = uitofp nneg i32 %.0.i to double
  %34 = fdiv double %33, %27
  %.031.i = select i1 %32, double %34, double 0.000000e+00
  %.b.i = load i1, ptr @csv_format, align 4
  br i1 %.b.i, label %35, label %41

35:                                               ; preds = %current_time.exit.i
  %.b35.i = load i1, ptr @bench_stats_asym_finish_ex.asym_header_printed, align 4
  br i1 %.b35.i, label %39, label %36

36:                                               ; preds = %35
  %37 = call i32 (ptr, ...) @printf(ptr noundef nonnull dereferenceable(1) @.str.159, ptr noundef nonnull @info_prefix)
  %38 = call i32 (ptr, ...) @printf(ptr noundef nonnull dereferenceable(1) @.str.160, ptr noundef nonnull @info_prefix)
  %putchar.i = call i32 @putchar(i32 10)
  store i1 true, ptr @bench_stats_asym_finish_ex.asym_header_printed, align 4
  br label %39

39:                                               ; preds = %36, %35
  %40 = call i32 (ptr, i64, ptr, ...) @snprintf(ptr noundef nonnull dereferenceable(1) %8, i64 noundef 256, ptr noundef nonnull @.str.161, ptr noundef %0, i32 noundef %1, ptr noundef %2, ptr noundef nonnull @.str.113, i32 noundef 3, double noundef %.030.i, i32 noundef 3, double noundef %.031.i) #16
  br label %50

41:                                               ; preds = %current_time.exit.i
  %42 = load ptr, ptr %11, align 8, !tbaa !8
  %43 = getelementptr inbounds nuw i8, ptr %11, i64 8
  %44 = load ptr, ptr %43, align 8, !tbaa !8
  %45 = getelementptr inbounds nuw i8, ptr %11, i64 16
  %46 = load ptr, ptr %45, align 8, !tbaa !8
  %47 = getelementptr inbounds nuw i8, ptr %11, i64 24
  %48 = load ptr, ptr %47, align 8, !tbaa !8
  %49 = call i32 (ptr, i64, ptr, ...) @snprintf(ptr noundef nonnull dereferenceable(1) %8, i64 noundef 256, ptr noundef nonnull @.str.162, ptr noundef %0, i32 noundef %1, ptr noundef %2, ptr noundef nonnull @.str.113, ptr noundef nonnull @.str.113, i32 noundef %.0.i, ptr noundef %42, i32 noundef 5, i32 noundef 3, double noundef %27, ptr noundef %44, ptr noundef %46, i32 noundef 5, i32 noundef 3, double noundef %.030.i, i32 noundef 3, double noundef %.031.i, ptr noundef %48) #16
  br label %50

50:                                               ; preds = %41, %39
  %51 = call i32 (ptr, ...) @printf(ptr noundef nonnull dereferenceable(1) @.str.115, ptr noundef nonnull %8)
  %52 = icmp slt i32 %5, 0
  br i1 %52, label %53, label %bench_stats_asym_finish_ex.exit

53:                                               ; preds = %50
  %54 = call i32 (ptr, ...) @printf(ptr noundef nonnull dereferenceable(1) @.str.163, ptr noundef nonnull @.str.113, ptr noundef %0, ptr noundef %2, i32 noundef %1, i32 noundef %5)
  br label %bench_stats_asym_finish_ex.exit

bench_stats_asym_finish_ex.exit:                  ; preds = %50, %53
  %55 = load ptr, ptr @stdout, align 8, !tbaa !14
  %56 = call i32 @fflush(ptr noundef %55)
  call void @llvm.lifetime.end.p0(i64 256, ptr nonnull %8) #16
  ret void
}